target datalayout = "e-m:e-p270:32:32-p271:32:32-p272:64:64-i64:64-i128:128-f80:128-n8:16:32:64-S128"
target triple = "x86_64-pc-linux-gnu"

%struct.BiquadsContext = type { ptr, i32, i32, i32, i32, i32, i32, i32, i32, double, double, double, double, ptr, %struct.AVChannelLayout, i32, i32, [3 x double], [3 x double], [3 x float], [3 x float], [3 x double], [3 x double], [3 x ptr], ptr, [2 x ptr], i32, i64, i32, ptr }
%struct.AVChannelLayout = type { i32, i32, %union.anon.1, ptr }
%union.anon.1 = type { i64 }

; Function Attrs: nounwind uwtable
define internal void @biquad_dbl(ptr noundef %0, ptr noundef %1, ptr noundef %2, i32 noundef %3, ptr noundef %4, ptr noundef %5, i32 noundef %6) #1 {
  %8 = alloca ptr, align 8
  %9 = alloca ptr, align 8
  %10 = alloca ptr, align 8
  %11 = alloca i32, align 4
  %12 = alloca ptr, align 8
  %13 = alloca ptr, align 8
  %14 = alloca i32, align 4
  %15 = alloca ptr, align 8
  %16 = alloca ptr, align 8
  %17 = alloca ptr, align 8
  %18 = alloca double, align 8
  %19 = alloca double, align 8
  %20 = alloca double, align 8
  %21 = alloca double, align 8
  %22 = alloca ptr, align 8
  %23 = alloca ptr, align 8
  %24 = alloca double, align 8
  %25 = alloca double, align 8
  %26 = alloca double, align 8
  %27 = alloca double, align 8
  %28 = alloca double, align 8
  %29 = alloca double, align 8
  %30 = alloca double, align 8
  %31 = alloca double, align 8
  %32 = alloca i32, align 4
  %33 = alloca double, align 8
  store ptr %0, ptr %8, align 8, !tbaa !22
  store ptr %1, ptr %9, align 8, !tbaa !36
  store ptr %2, ptr %10, align 8, !tbaa !36
  store i32 %3, ptr %11, align 4, !tbaa !31
  store ptr %4, ptr %12, align 8, !tbaa !36
  store ptr %5, ptr %13, align 8, !tbaa !82
  store i32 %6, ptr %14, align 4, !tbaa !31
  call void @llvm.lifetime.start.p0(i64 8, ptr %15) #11
  %34 = load ptr, ptr %9, align 8, !tbaa !36
  store ptr %34, ptr %15, align 8, !tbaa !91
  call void @llvm.lifetime.start.p0(i64 8, ptr %16) #11
  %35 = load ptr, ptr %10, align 8, !tbaa !36
  store ptr %35, ptr %16, align 8, !tbaa !91
  call void @llvm.lifetime.start.p0(i64 8, ptr %17) #11
  %36 = load ptr, ptr %12, align 8, !tbaa !36
  store ptr %36, ptr %17, align 8, !tbaa !91
  call void @llvm.lifetime.start.p0(i64 8, ptr %18) #11
  %37 = load ptr, ptr %17, align 8, !tbaa !91
  %38 = getelementptr inbounds double, ptr %37, i64 0
  %39 = load double, ptr %38, align 8, !tbaa !55
  store double %39, ptr %18, align 8, !tbaa !55
  call void @llvm.lifetime.start.p0(i64 8, ptr %19) #11
  %40 = load ptr, ptr %17, align 8, !tbaa !91
  %41 = getelementptr inbounds double, ptr %40, i64 1
  %42 = load double, ptr %41, align 8, !tbaa !55
  store double %42, ptr %19, align 8, !tbaa !55
  call void @llvm.lifetime.start.p0(i64 8, ptr %20) #11
  %43 = load ptr, ptr %17, align 8, !tbaa !91
  %44 = getelementptr inbounds double, ptr %43, i64 2
  %45 = load double, ptr %44, align 8, !tbaa !55
  store double %45, ptr %20, align 8, !tbaa !55
  call void @llvm.lifetime.start.p0(i64 8, ptr %21) #11
  %46 = load ptr, ptr %17, align 8, !tbaa !91
  %47 = getelementptr inbounds double, ptr %46, i64 3
  %48 = load double, ptr %47, align 8, !tbaa !55
  store double %48, ptr %21, align 8, !tbaa !55
  call void @llvm.lifetime.start.p0(i64 8, ptr %22) #11
  %49 = load ptr, ptr %8, align 8, !tbaa !22
  %50 = getelementptr inbounds nuw %struct.BiquadsContext, ptr %49, i32 0, i32 17
  %51 = getelementptr inbounds [3 x double], ptr %50, i64 0, i64 0
  store ptr %51, ptr %22, align 8, !tbaa !91
  call void @llvm.lifetime.start.p0(i64 8, ptr %23) #11
  %52 = load ptr, ptr %8, align 8, !tbaa !22
  %53 = getelementptr inbounds nuw %struct.BiquadsContext, ptr %52, i32 0, i32 18
  %54 = getelementptr inbounds [3 x double], ptr %53, i64 0, i64 0
  store ptr %54, ptr %23, align 8, !tbaa !91
  call void @llvm.lifetime.start.p0(i64 8, ptr %24) #11
  %55 = load ptr, ptr %22, align 8, !tbaa !91
  %56 = getelementptr inbounds double, ptr %55, i64 1
  %57 = load double, ptr %56, align 8, !tbaa !55
  %58 = fneg nsz double %57
  store double %58, ptr %24, align 8, !tbaa !55
  call void @llvm.lifetime.start.p0(i64 8, ptr %25) #11
  %59 = load ptr, ptr %22, align 8, !tbaa !91
  %60 = getelementptr inbounds double, ptr %59, i64 2
  %61 = load double, ptr %60, align 8, !tbaa !55
  %62 = fneg nsz double %61
  store double %62, ptr %25, align 8, !tbaa !55
  call void @llvm.lifetime.start.p0(i64 8, ptr %26) #11
  %63 = load ptr, ptr %23, align 8, !tbaa !91
  %64 = getelementptr inbounds double, ptr %63, i64 0
  %65 = load double, ptr %64, align 8, !tbaa !55
  store double %65, ptr %26, align 8, !tbaa !55
  call void @llvm.lifetime.start.p0(i64 8, ptr %27) #11
  %66 = load ptr, ptr %23, align 8, !tbaa !91
  %67 = getelementptr inbounds double, ptr %66, i64 1
  %68 = load double, ptr %67, align 8, !tbaa !55
  store double %68, ptr %27, align 8, !tbaa !55
  call void @llvm.lifetime.start.p0(i64 8, ptr %28) #11
  %69 = load ptr, ptr %23, align 8, !tbaa !91
  %70 = getelementptr inbounds double, ptr %69, i64 2
  %71 = load double, ptr %70, align 8, !tbaa !55
  store double %71, ptr %28, align 8, !tbaa !55
  call void @llvm.lifetime.start.p0(i64 8, ptr %29) #11
  %72 = load ptr, ptr %8, align 8, !tbaa !22
  %73 = getelementptr inbounds nuw %struct.BiquadsContext, ptr %72, i32 0, i32 12
  %74 = load double, ptr %73, align 8, !tbaa !87
  store double %74, ptr %29, align 8, !tbaa !55
  call void @llvm.lifetime.start.p0(i64 8, ptr %30) #11
  %75 = load double, ptr %29, align 8, !tbaa !55
  %76 = fsub nsz double 1.000000e+00, %75
  store double %76, ptr %30, align 8, !tbaa !55
  call void @llvm.lifetime.start.p0(i64 8, ptr %31) #11
  call void @llvm.lifetime.start.p0(i64 4, ptr %32) #11
  store i32 0, ptr %32, align 4, !tbaa !31
  br label %77

77:                                               ; preds = %175, %7
  %78 = load i32, ptr %32, align 4, !tbaa !31
  %79 = add nsw i32 %78, 1
  %80 = load i32, ptr %11, align 4, !tbaa !31
  %81 = icmp slt i32 %79, %80
  br i1 %81, label %82, label %178

82:                                               ; preds = %77
  %83 = load double, ptr %19, align 8, !tbaa !55
  %84 = load double, ptr %28, align 8, !tbaa !55
  %85 = load double, ptr %18, align 8, !tbaa !55
  %86 = load double, ptr %27, align 8, !tbaa !55
  %87 = fmul nsz double %85, %86
  %88 = call nsz double @llvm.fmuladd.f64(double %83, double %84, double %87)
  %89 = load ptr, ptr %15, align 8, !tbaa !91
  %90 = load i32, ptr %32, align 4, !tbaa !31
  %91 = sext i32 %90 to i64
  %92 = getelementptr inbounds double, ptr %89, i64 %91
  %93 = load double, ptr %92, align 8, !tbaa !55
  %94 = load double, ptr %26, align 8, !tbaa !55
  %95 = call nsz double @llvm.fmuladd.f64(double %93, double %94, double %88)
  %96 = load double, ptr %21, align 8, !tbaa !55
  %97 = load double, ptr %25, align 8, !tbaa !55
  %98 = call nsz double @llvm.fmuladd.f64(double %96, double %97, double %95)
  %99 = load double, ptr %20, align 8, !tbaa !55
  %100 = load double, ptr %24, align 8, !tbaa !55
  %101 = call nsz double @llvm.fmuladd.f64(double %99, double %100, double %98)
  store double %101, ptr %21, align 8, !tbaa !55
  %102 = load ptr, ptr %15, align 8, !tbaa !91
  %103 = load i32, ptr %32, align 4, !tbaa !31
  %104 = sext i32 %103 to i64
  %105 = getelementptr inbounds double, ptr %102, i64 %104
  %106 = load double, ptr %105, align 8, !tbaa !55
  store double %106, ptr %19, align 8, !tbaa !55
  %107 = load double, ptr %21, align 8, !tbaa !55
  %108 = load double, ptr %29, align 8, !tbaa !55
  %109 = load double, ptr %19, align 8, !tbaa !55
  %110 = load double, ptr %30, align 8, !tbaa !55
  %111 = fmul nsz double %109, %110
  %112 = call nsz double @llvm.fmuladd.f64(double %107, double %108, double %111)
  store double %112, ptr %31, align 8, !tbaa !55
  %113 = load i32, ptr %14, align 4, !tbaa !31
  %114 = icmp ne i32 %113, 0
  br i1 %114, label %115, label %121

115:                                              ; preds = %82
  %116 = load double, ptr %19, align 8, !tbaa !55
  %117 = load ptr, ptr %16, align 8, !tbaa !91
  %118 = load i32, ptr %32, align 4, !tbaa !31
  %119 = sext i32 %118 to i64
  %120 = getelementptr inbounds double, ptr %117, i64 %119
  store double %116, ptr %120, align 8, !tbaa !55
  br label %127

121:                                              ; preds = %82
  %122 = load double, ptr %31, align 8, !tbaa !55
  %123 = load ptr, ptr %16, align 8, !tbaa !91
  %124 = load i32, ptr %32, align 4, !tbaa !31
  %125 = sext i32 %124 to i64
  %126 = getelementptr inbounds double, ptr %123, i64 %125
  store double %122, ptr %126, align 8, !tbaa !55
  br label %127

127:                                              ; preds = %121, %115
  %128 = load i32, ptr %32, align 4, !tbaa !31
  %129 = add nsw i32 %128, 1
  store i32 %129, ptr %32, align 4, !tbaa !31
  %130 = load double, ptr %18, align 8, !tbaa !55
  %131 = load double, ptr %28, align 8, !tbaa !55
  %132 = load double, ptr %19, align 8, !tbaa !55
  %133 = load double, ptr %27, align 8, !tbaa !55
  %134 = fmul nsz double %132, %133
  %135 = call nsz double @llvm.fmuladd.f64(double %130, double %131, double %134)
  %136 = load ptr, ptr %15, align 8, !tbaa !91
  %137 = load i32, ptr %32, align 4, !tbaa !31
  %138 = sext i32 %137 to i64
  %139 = getelementptr inbounds double, ptr %136, i64 %138
  %140 = load double, ptr %139, align 8, !tbaa !55
  %141 = load double, ptr %26, align 8, !tbaa !55
  %142 = call nsz double @llvm.fmuladd.f64(double %140, double %141, double %135)
  %143 = load double, ptr %20, align 8, !tbaa !55
  %144 = load double, ptr %25, align 8, !tbaa !55
  %145 = call nsz double @llvm.fmuladd.f64(double %143, double %144, double %142)
  %146 = load double, ptr %21, align 8, !tbaa !55
  %147 = load double, ptr %24, align 8, !tbaa !55
  %148 = call nsz double @llvm.fmuladd.f64(double %146, double %147, double %145)
  store double %148, ptr %20, align 8, !tbaa !55
  %149 = load ptr, ptr %15, align 8, !tbaa !91
  %150 = load i32, ptr %32, align 4, !tbaa !31
  %151 = sext i32 %150 to i64
  %152 = getelementptr inbounds double, ptr %149, i64 %151
  %153 = load double, ptr %152, align 8, !tbaa !55
  store double %153, ptr %18, align 8, !tbaa !55
  %154 = load double, ptr %20, align 8, !tbaa !55
  %155 = load double, ptr %29, align 8, !tbaa !55
  %156 = load double, ptr %18, align 8, !tbaa !55
  %157 = load double, ptr %30, align 8, !tbaa !55
  %158 = fmul nsz double %156, %157
  %159 = call nsz double @llvm.fmuladd.f64(double %154, double %155, double %158)
  store double %159, ptr %31, align 8, !tbaa !55
  %160 = load i32, ptr %14, align 4, !tbaa !31
  %161 = icmp ne i32 %160, 0
  br i1 %161, label %162, label %168

162:                                              ; preds = %127
  %163 = load double, ptr %18, align 8, !tbaa !55
  %164 = load ptr, ptr %16, align 8, !tbaa !91
  %165 = load i32, ptr %32, align 4, !tbaa !31
  %166 = sext i32 %165 to i64
  %167 = getelementptr inbounds double, ptr %164, i64 %166
  store double %163, ptr %167, align 8, !tbaa !55
  br label %174

168:                                              ; preds = %127
  %169 = load double, ptr %31, align 8, !tbaa !55
  %170 = load ptr, ptr %16, align 8, !tbaa !91
  %171 = load i32, ptr %32, align 4, !tbaa !31
  %172 = sext i32 %171 to i64
  %173 = getelementptr inbounds double, ptr %170, i64 %172
  store double %169, ptr %173, align 8, !tbaa !55
  br label %174

174:                                              ; preds = %168, %162
  br label %175

175:                                              ; preds = %174
  %176 = load i32, ptr %32, align 4, !tbaa !31
  %177 = add nsw i32 %176, 1
  store i32 %177, ptr %32, align 4, !tbaa !31
  br label %77, !llvm.loop !94

178:                                              ; preds = %77
  %179 = load i32, ptr %32, align 4, !tbaa !31
  %180 = load i32, ptr %11, align 4, !tbaa !31
  %181 = icmp slt i32 %179, %180
  br i1 %181, label %182, label %231

182:                                              ; preds = %178
  call void @llvm.lifetime.start.p0(i64 8, ptr %33) #11
  %183 = load ptr, ptr %15, align 8, !tbaa !91
  %184 = load i32, ptr %32, align 4, !tbaa !31
  %185 = sext i32 %184 to i64
  %186 = getelementptr inbounds double, ptr %183, i64 %185
  %187 = load double, ptr %186, align 8, !tbaa !55
  %188 = load double, ptr %26, align 8, !tbaa !55
  %189 = load double, ptr %18, align 8, !tbaa !55
  %190 = load double, ptr %27, align 8, !tbaa !55
  %191 = fmul nsz double %189, %190
  %192 = call nsz double @llvm.fmuladd.f64(double %187, double %188, double %191)
  %193 = load double, ptr %19, align 8, !tbaa !55
  %194 = load double, ptr %28, align 8, !tbaa !55
  %195 = call nsz double @llvm.fmuladd.f64(double %193, double %194, double %192)
  %196 = load double, ptr %20, align 8, !tbaa !55
  %197 = load double, ptr %24, align 8, !tbaa !55
  %198 = call nsz double @llvm.fmuladd.f64(double %196, double %197, double %195)
  %199 = load double, ptr %21, align 8, !tbaa !55
  %200 = load double, ptr %25, align 8, !tbaa !55
  %201 = call nsz double @llvm.fmuladd.f64(double %199, double %200, double %198)
  store double %201, ptr %33, align 8, !tbaa !55
  %202 = load double, ptr %18, align 8, !tbaa !55
  store double %202, ptr %19, align 8, !tbaa !55
  %203 = load ptr, ptr %15, align 8, !tbaa !91
  %204 = load i32, ptr %32, align 4, !tbaa !31
  %205 = sext i32 %204 to i64
  %206 = getelementptr inbounds double, ptr %203, i64 %205
  %207 = load double, ptr %206, align 8, !tbaa !55
  store double %207, ptr %18, align 8, !tbaa !55
  %208 = load double, ptr %20, align 8, !tbaa !55
  store double %208, ptr %21, align 8, !tbaa !55
  %209 = load double, ptr %33, align 8, !tbaa !55
  store double %209, ptr %20, align 8, !tbaa !55
  %210 = load double, ptr %33, align 8, !tbaa !55
  %211 = load double, ptr %29, align 8, !tbaa !55
  %212 = load double, ptr %18, align 8, !tbaa !55
  %213 = load double, ptr %30, align 8, !tbaa !55
  %214 = fmul nsz double %212, %213
  %215 = call nsz double @llvm.fmuladd.f64(double %210, double %211, double %214)
  store double %215, ptr %31, align 8, !tbaa !55
  %216 = load i32, ptr %14, align 4, !tbaa !31
  %217 = icmp ne i32 %216, 0
  br i1 %217, label %218, label %224

218:                                              ; preds = %182
  %219 = load double, ptr %18, align 8, !tbaa !55
  %220 = load ptr, ptr %16, align 8, !tbaa !91
  %221 = load i32, ptr %32, align 4, !tbaa !31
  %222 = sext i32 %221 to i64
  %223 = getelementptr inbounds double, ptr %220, i64 %222
  store double %219, ptr %223, align 8, !tbaa !55
  br label %230

224:                                              ; preds = %182
  %225 = load double, ptr %31, align 8, !tbaa !55
  %226 = load ptr, ptr %16, align 8, !tbaa !91
  %227 = load i32, ptr %32, align 4, !tbaa !31
  %228 = sext i32 %227 to i64
  %229 = getelementptr inbounds double, ptr %226, i64 %228
  store double %225, ptr %229, align 8, !tbaa !55
  br label %230

230:                                              ; preds = %224, %218
  call void @llvm.lifetime.end.p0(i64 8, ptr %33) #11
  br label %231

231:                                              ; preds = %230, %178
  %232 = load double, ptr %18, align 8, !tbaa !55
  %233 = load ptr, ptr %17, align 8, !tbaa !91
  %234 = getelementptr inbounds double, ptr %233, i64 0
  store double %232, ptr %234, align 8, !tbaa !55
  %235 = load double, ptr %19, align 8, !tbaa !55
  %236 = load ptr, ptr %17, align 8, !tbaa !91
  %237 = getelementptr inbounds double, ptr %236, i64 1
  store double %235, ptr %237, align 8, !tbaa !55
  %238 = load double, ptr %20, align 8, !tbaa !55
  %239 = load ptr, ptr %17, align 8, !tbaa !91
  %240 = getelementptr inbounds double, ptr %239, i64 2
  store double %238, ptr %240, align 8, !tbaa !55
  %241 = load double, ptr %21, align 8, !tbaa !55
  %242 = load ptr, ptr %17, align 8, !tbaa !91
  %243 = getelementptr inbounds double, ptr %242, i64 3
  store double %241, ptr %243, align 8, !tbaa !55
  call void @llvm.lifetime.end.p0(i64 4, ptr %32) #11
  call void @llvm.lifetime.end.p0(i64 8, ptr %31) #11
  call void @llvm.lifetime.end.p0(i64 8, ptr %30) #11
  call void @llvm.lifetime.end.p0(i64 8, ptr %29) #11
  call void @llvm.lifetime.end.p0(i64 8, ptr %28) #11
  call void @llvm.lifetime.end.p0(i64 8, ptr %27) #11
  call void @llvm.lifetime.end.p0(i64 8, ptr %26) #11
  call void @llvm.lifetime.end.p0(i64 8, ptr %25) #11
  call void @llvm.lifetime.end.p0(i64 8, ptr %24) #11
  call void @llvm.lifetime.end.p0(i64 8, ptr %23) #11
  call void @llvm.lifetime.end.p0(i64 8, ptr %22) #11
  call void @llvm.lifetime.end.p0(i64 8, ptr %21) #11
  call void @llvm.lifetime.end.p0(i64 8, ptr %20) #11
  call void @llvm.lifetime.end.p0(i64 8, ptr %19) #11
  call void @llvm.lifetime.end.p0(i64 8, ptr %18) #11
  call void @llvm.lifetime.end.p0(i64 8, ptr %17) #11
  call void @llvm.lifetime.end.p0(i64 8, ptr %16) #11
  call void @llvm.lifetime.end.p0(i64 8, ptr %15) #11
  ret void
}