; Function Attrs: nofree norecurse nosync nounwind memory(argmem: readwrite) uwtable
define internal void @biquad_dbl(ptr noundef readonly captures(none) %0, ptr noundef readonly captures(none) %1, ptr noundef writeonly captures(none) %2, i32 noundef %3, ptr noundef captures(none) %4, ptr readnone captures(none) %5, i32 noundef %6) #7 {
  %8 = load double, ptr %4, align 8, !tbaa !53
  %9 = getelementptr inbounds nuw i8, ptr %4, i64 8
  %10 = load double, ptr %9, align 8, !tbaa !53
  %11 = getelementptr inbounds nuw i8, ptr %4, i64 16
  %12 = load double, ptr %11, align 8, !tbaa !53
  %13 = getelementptr inbounds nuw i8, ptr %4, i64 24
  %14 = load double, ptr %13, align 8, !tbaa !53
  %15 = getelementptr inbounds nuw i8, ptr %0, i64 136
  %16 = getelementptr inbounds nuw i8, ptr %0, i64 120
  %17 = load double, ptr %16, align 8, !tbaa !53
  %18 = fneg nsz double %17
  %19 = getelementptr inbounds nuw i8, ptr %0, i64 128
  %20 = load double, ptr %19, align 8, !tbaa !53
  %21 = fneg nsz double %20
  %22 = load double, ptr %15, align 8, !tbaa !53
  %23 = getelementptr inbounds nuw i8, ptr %0, i64 144
  %24 = load double, ptr %23, align 8, !tbaa !53
  %25 = getelementptr inbounds nuw i8, ptr %0, i64 152
  %26 = load double, ptr %25, align 8, !tbaa !53
  %27 = getelementptr inbounds nuw i8, ptr %0, i64 64
  %28 = load double, ptr %27, align 8, !tbaa !75
  %29 = fsub nsz double 1.000000e+00, %28
  %30 = icmp sgt i32 %3, 1
  br i1 %30, label %.lr.ph, label %._crit_edge

.lr.ph:                                           ; preds = %7
  %.not113 = icmp eq i32 %6, 0
  %31 = zext nneg i32 %3 to i64
  br i1 %.not113, label %.lr.ph.split.us, label %.lr.ph.split

.lr.ph.split.us:                                  ; preds = %.lr.ph, %.lr.ph.split.us
  %indvars.iv138 = phi i64 [ %indvars.iv.next139, %.lr.ph.split.us ], [ 0, %.lr.ph ]
  %.0118.us = phi double [ %46, %.lr.ph.split.us ], [ %8, %.lr.ph ]
  %.0105116.us = phi double [ %36, %.lr.ph.split.us ], [ %10, %.lr.ph ]
  %.0107115.us = phi double [ %49, %.lr.ph.split.us ], [ %12, %.lr.ph ]
  %.0109114.us = phi double [ %39, %.lr.ph.split.us ], [ %14, %.lr.ph ]
  %32 = or disjoint i64 %indvars.iv138, 1
  %33 = fmul nsz double %24, %.0118.us
  %34 = tail call nsz double @llvm.fmuladd.f64(double %.0105116.us, double %26, double %33)
  %35 = getelementptr inbounds nuw double, ptr %1, i64 %indvars.iv138
  %36 = load double, ptr %35, align 8, !tbaa !53
  %37 = tail call nsz double @llvm.fmuladd.f64(double %36, double %22, double %34)
  %38 = tail call nsz double @llvm.fmuladd.f64(double %.0109114.us, double %21, double %37)
  %39 = tail call nsz double @llvm.fmuladd.f64(double %.0107115.us, double %18, double %38)
  %40 = fmul nsz double %29, %36
  %41 = tail call nsz double @llvm.fmuladd.f64(double %39, double %28, double %40)
  %42 = getelementptr inbounds nuw double, ptr %2, i64 %indvars.iv138
  store double %41, ptr %42, align 8, !tbaa !53
  %43 = fmul nsz double %24, %36
  %44 = tail call nsz double @llvm.fmuladd.f64(double %.0118.us, double %26, double %43)
  %45 = getelementptr inbounds nuw double, ptr %1, i64 %32
  %46 = load double, ptr %45, align 8, !tbaa !53
  %47 = tail call nsz double @llvm.fmuladd.f64(double %46, double %22, double %44)
  %48 = tail call nsz double @llvm.fmuladd.f64(double %.0107115.us, double %21, double %47)
  %49 = tail call nsz double @llvm.fmuladd.f64(double %39, double %18, double %48)
  %50 = fmul nsz double %29, %46
  %51 = tail call nsz double @llvm.fmuladd.f64(double %49, double %28, double %50)
  %52 = getelementptr inbounds nuw double, ptr %2, i64 %32
  store double %51, ptr %52, align 8, !tbaa !53
  %indvars.iv.next139 = add nuw nsw i64 %indvars.iv138, 2
  %53 = or disjoint i64 %indvars.iv.next139, 1
  %54 = icmp samesign ult i64 %53, %31
  br i1 %54, label %.lr.ph.split.us, label %._crit_edge.loopexit, !llvm.loop !81

.lr.ph.split:                                     ; preds = %.lr.ph, %.lr.ph.split
  %indvars.iv = phi i64 [ %indvars.iv.next, %.lr.ph.split ], [ 0, %.lr.ph ]
  %.0118 = phi double [ %67, %.lr.ph.split ], [ %8, %.lr.ph ]
  %.0105116 = phi double [ %59, %.lr.ph.split ], [ %10, %.lr.ph ]
  %.0107115 = phi double [ %70, %.lr.ph.split ], [ %12, %.lr.ph ]
  %.0109114 = phi double [ %62, %.lr.ph.split ], [ %14, %.lr.ph ]
  %55 = or disjoint i64 %indvars.iv, 1
  %56 = fmul nsz double %24, %.0118
  %57 = tail call nsz double @llvm.fmuladd.f64(double %.0105116, double %26, double %56)
  %58 = getelementptr inbounds nuw double, ptr %1, i64 %indvars.iv
  %59 = load double, ptr %58, align 8, !tbaa !53
  %60 = tail call nsz double @llvm.fmuladd.f64(double %59, double %22, double %57)
  %61 = tail call nsz double @llvm.fmuladd.f64(double %.0109114, double %21, double %60)
  %62 = tail call nsz double @llvm.fmuladd.f64(double %.0107115, double %18, double %61)
  %63 = getelementptr inbounds nuw double, ptr %2, i64 %indvars.iv
  store double %59, ptr %63, align 8, !tbaa !53
  %64 = fmul nsz double %24, %59
  %65 = tail call nsz double @llvm.fmuladd.f64(double %.0118, double %26, double %64)
  %66 = getelementptr inbounds nuw double, ptr %1, i64 %55
  %67 = load double, ptr %66, align 8, !tbaa !53
  %68 = tail call nsz double @llvm.fmuladd.f64(double %67, double %22, double %65)
  %69 = tail call nsz double @llvm.fmuladd.f64(double %.0107115, double %21, double %68)
  %70 = tail call nsz double @llvm.fmuladd.f64(double %62, double %18, double %69)
  %71 = getelementptr inbounds nuw double, ptr %2, i64 %55
  store double %67, ptr %71, align 8, !tbaa !53
  %indvars.iv.next = add nuw nsw i64 %indvars.iv, 2
  %72 = or disjoint i64 %indvars.iv.next, 1
  %73 = icmp samesign ult i64 %72, %31
  br i1 %73, label %.lr.ph.split, label %._crit_edge.loopexit127, !llvm.loop !81

._crit_edge.loopexit:                             ; preds = %.lr.ph.split.us
  %74 = trunc nuw nsw i64 %indvars.iv.next139 to i32
  br label %._crit_edge

._crit_edge.loopexit127:                          ; preds = %.lr.ph.split
  %75 = trunc nuw nsw i64 %indvars.iv.next to i32
  br label %._crit_edge

._crit_edge:                                      ; preds = %._crit_edge.loopexit127, %._crit_edge.loopexit, %7
  %.0109.lcssa = phi double [ %14, %7 ], [ %39, %._crit_edge.loopexit ], [ %62, %._crit_edge.loopexit127 ]
  %.0107.lcssa = phi double [ %12, %7 ], [ %49, %._crit_edge.loopexit ], [ %70, %._crit_edge.loopexit127 ]
  %.0105.lcssa = phi double [ %10, %7 ], [ %36, %._crit_edge.loopexit ], [ %59, %._crit_edge.loopexit127 ]
  %.0104.lcssa = phi i32 [ 0, %7 ], [ %74, %._crit_edge.loopexit ], [ %75, %._crit_edge.loopexit127 ]
  %.0.lcssa = phi double [ %8, %7 ], [ %46, %._crit_edge.loopexit ], [ %67, %._crit_edge.loopexit127 ]
  %76 = icmp slt i32 %.0104.lcssa, %3
  br i1 %76, label %.sink.split, label %88

.sink.split:                                      ; preds = %._crit_edge
  %77 = zext nneg i32 %.0104.lcssa to i64
  %78 = getelementptr inbounds nuw double, ptr %1, i64 %77
  %79 = load double, ptr %78, align 8, !tbaa !53
  %80 = fmul nsz double %24, %.0.lcssa
  %81 = tail call nsz double @llvm.fmuladd.f64(double %79, double %22, double %80)
  %82 = tail call nsz double @llvm.fmuladd.f64(double %.0105.lcssa, double %26, double %81)
  %83 = tail call nsz double @llvm.fmuladd.f64(double %.0107.lcssa, double %18, double %82)
  %84 = tail call nsz double @llvm.fmuladd.f64(double %.0109.lcssa, double %21, double %83)
  %.not = icmp eq i32 %6, 0
  %85 = fmul nsz double %29, %79
  %86 = tail call nsz double @llvm.fmuladd.f64(double %84, double %28, double %85)
  %.sink = select i1 %.not, double %86, double %79
  %87 = getelementptr inbounds nuw double, ptr %2, i64 %77
  store double %.sink, ptr %87, align 8, !tbaa !53
  br label %88

88:                                               ; preds = %.sink.split, %._crit_edge
  %.1110 = phi nsz double [ %.0109.lcssa, %._crit_edge ], [ %.0107.lcssa, %.sink.split ]
  %.1108 = phi nsz double [ %.0107.lcssa, %._crit_edge ], [ %84, %.sink.split ]
  %.1106 = phi nsz double [ %.0105.lcssa, %._crit_edge ], [ %.0.lcssa, %.sink.split ]
  %.1 = phi nsz double [ %.0.lcssa, %._crit_edge ], [ %79, %.sink.split ]
  store double %.1, ptr %4, align 8, !tbaa !53
  store double %.1106, ptr %9, align 8, !tbaa !53
  store double %.1108, ptr %11, align 8, !tbaa !53
  store double %.1110, ptr %13, align 8, !tbaa !53
  ret void
}